target datalayout = "e-m:e-p270:32:32-p271:32:32-p272:64:64-i64:64-i128:128-f80:128-n8:16:32:64-S128"
target triple = "x86_64-pc-linux-gnu"

%struct.stbi__huffman = type { [512 x i8], [256 x i16], [256 x i8], [257 x i8], [18 x i32], [17 x i32] }

@_ZL22stbi__g_failure_reason = internal thread_local global ptr null, align 8
@.str.53 = private unnamed_addr constant [17 x i8] c"bad code lengths\00", align 1

; Function Attrs: mustprogress nounwind uwtable
define internal noundef i32 @_ZL9stbi__errPKc(ptr noundef %0) #0 {
  %2 = alloca ptr, align 8
  store ptr %0, ptr %2, align 8, !tbaa !4
  %3 = load ptr, ptr %2, align 8, !tbaa !4
  %4 = call align 8 ptr @llvm.threadlocal.address.p0(ptr align 8 @_ZL22stbi__g_failure_reason)
  store ptr %3, ptr %4, align 8, !tbaa !4
  ret i32 0
}

; Function Attrs: mustprogress nounwind uwtable
define internal noundef i32 @_ZL19stbi__build_huffmanP13stbi__huffmanPi(ptr noundef %0, ptr noundef %1) #0 {
  %3 = alloca i32, align 4
  %4 = alloca ptr, align 8
  %5 = alloca ptr, align 8
  %6 = alloca i32, align 4
  %7 = alloca i32, align 4
  %8 = alloca i32, align 4
  %9 = alloca i32, align 4
  %10 = alloca i32, align 4
  %11 = alloca i32, align 4
  %12 = alloca i32, align 4
  %13 = alloca i32, align 4
  store ptr %0, ptr %4, align 8, !tbaa !9
  store ptr %1, ptr %5, align 8, !tbaa !12
  call void @llvm.lifetime.start.p0(i64 4, ptr %6) #22
  call void @llvm.lifetime.start.p0(i64 4, ptr %7) #22
  call void @llvm.lifetime.start.p0(i64 4, ptr %8) #22
  store i32 0, ptr %8, align 4, !tbaa !10
  call void @llvm.lifetime.start.p0(i64 4, ptr %9) #22
  store i32 0, ptr %6, align 4, !tbaa !10
  br label %14

14:                                               ; preds = %40, %2
  %15 = load i32, ptr %6, align 4, !tbaa !10
  %16 = icmp slt i32 %15, 16
  br i1 %16, label %17, label %43

17:                                               ; preds = %14
  store i32 0, ptr %7, align 4, !tbaa !10
  br label %18

18:                                               ; preds = %36, %17
  %19 = load i32, ptr %7, align 4, !tbaa !10
  %20 = load ptr, ptr %5, align 8, !tbaa !12
  %21 = load i32, ptr %6, align 4, !tbaa !10
  %22 = sext i32 %21 to i64
  %23 = getelementptr inbounds i32, ptr %20, i64 %22
  %24 = load i32, ptr %23, align 4, !tbaa !10
  %25 = icmp slt i32 %19, %24
  br i1 %25, label %26, label %39

26:                                               ; preds = %18
  %27 = load i32, ptr %6, align 4, !tbaa !10
  %28 = add nsw i32 %27, 1
  %29 = trunc i32 %28 to i8
  %30 = load ptr, ptr %4, align 8, !tbaa !9
  %31 = getelementptr inbounds nuw %struct.stbi__huffman, ptr %30, i32 0, i32 3
  %32 = load i32, ptr %8, align 4, !tbaa !10
  %33 = add nsw i32 %32, 1
  store i32 %33, ptr %8, align 4, !tbaa !10
  %34 = sext i32 %32 to i64
  %35 = getelementptr inbounds [257 x i8], ptr %31, i64 0, i64 %34
  store i8 %29, ptr %35, align 1, !tbaa !57
  br label %36

36:                                               ; preds = %26
  %37 = load i32, ptr %7, align 4, !tbaa !10
  %38 = add nsw i32 %37, 1
  store i32 %38, ptr %7, align 4, !tbaa !10
  br label %18, !llvm.loop !312

39:                                               ; preds = %18
  br label %40

40:                                               ; preds = %39
  %41 = load i32, ptr %6, align 4, !tbaa !10
  %42 = add nsw i32 %41, 1
  store i32 %42, ptr %6, align 4, !tbaa !10
  br label %14, !llvm.loop !313

43:                                               ; preds = %14
  %44 = load ptr, ptr %4, align 8, !tbaa !9
  %45 = getelementptr inbounds nuw %struct.stbi__huffman, ptr %44, i32 0, i32 3
  %46 = load i32, ptr %8, align 4, !tbaa !10
  %47 = sext i32 %46 to i64
  %48 = getelementptr inbounds [257 x i8], ptr %45, i64 0, i64 %47
  store i8 0, ptr %48, align 1, !tbaa !57
  store i32 0, ptr %9, align 4, !tbaa !10
  store i32 0, ptr %8, align 4, !tbaa !10
  store i32 1, ptr %7, align 4, !tbaa !10
  br label %49

49:                                               ; preds = %112, %43
  %50 = load i32, ptr %7, align 4, !tbaa !10
  %51 = icmp sle i32 %50, 16
  br i1 %51, label %52, label %115

52:                                               ; preds = %49
  %53 = load i32, ptr %8, align 4, !tbaa !10
  %54 = load i32, ptr %9, align 4, !tbaa !10
  %55 = sub i32 %53, %54
  %56 = load ptr, ptr %4, align 8, !tbaa !9
  %57 = getelementptr inbounds nuw %struct.stbi__huffman, ptr %56, i32 0, i32 5
  %58 = load i32, ptr %7, align 4, !tbaa !10
  %59 = sext i32 %58 to i64
  %60 = getelementptr inbounds [17 x i32], ptr %57, i64 0, i64 %59
  store i32 %55, ptr %60, align 4, !tbaa !10
  %61 = load ptr, ptr %4, align 8, !tbaa !9
  %62 = getelementptr inbounds nuw %struct.stbi__huffman, ptr %61, i32 0, i32 3
  %63 = load i32, ptr %8, align 4, !tbaa !10
  %64 = sext i32 %63 to i64
  %65 = getelementptr inbounds [257 x i8], ptr %62, i64 0, i64 %64
  %66 = load i8, ptr %65, align 1, !tbaa !57
  %67 = zext i8 %66 to i32
  %68 = load i32, ptr %7, align 4, !tbaa !10
  %69 = icmp eq i32 %67, %68
  br i1 %69, label %70, label %100

70:                                               ; preds = %52
  br label %71

71:                                               ; preds = %81, %70
  %72 = load ptr, ptr %4, align 8, !tbaa !9
  %73 = getelementptr inbounds nuw %struct.stbi__huffman, ptr %72, i32 0, i32 3
  %74 = load i32, ptr %8, align 4, !tbaa !10
  %75 = sext i32 %74 to i64
  %76 = getelementptr inbounds [257 x i8], ptr %73, i64 0, i64 %75
  %77 = load i8, ptr %76, align 1, !tbaa !57
  %78 = zext i8 %77 to i32
  %79 = load i32, ptr %7, align 4, !tbaa !10
  %80 = icmp eq i32 %78, %79
  br i1 %80, label %81, label %91

81:                                               ; preds = %71
  %82 = load i32, ptr %9, align 4, !tbaa !10
  %83 = add i32 %82, 1
  store i32 %83, ptr %9, align 4, !tbaa !10
  %84 = trunc i32 %82 to i16
  %85 = load ptr, ptr %4, align 8, !tbaa !9
  %86 = getelementptr inbounds nuw %struct.stbi__huffman, ptr %85, i32 0, i32 1
  %87 = load i32, ptr %8, align 4, !tbaa !10
  %88 = add nsw i32 %87, 1
  store i32 %88, ptr %8, align 4, !tbaa !10
  %89 = sext i32 %87 to i64
  %90 = getelementptr inbounds [256 x i16], ptr %86, i64 0, i64 %89
  store i16 %84, ptr %90, align 2, !tbaa !55
  br label %71, !llvm.loop !314

91:                                               ; preds = %71
  %92 = load i32, ptr %9, align 4, !tbaa !10
  %93 = sub i32 %92, 1
  %94 = load i32, ptr %7, align 4, !tbaa !10
  %95 = shl i32 1, %94
  %96 = icmp uge i32 %93, %95
  br i1 %96, label %97, label %99

97:                                               ; preds = %91
  %98 = call noundef i32 @_ZL9stbi__errPKc(ptr noundef @.str.53)
  store i32 %98, ptr %3, align 4
  store i32 1, ptr %10, align 4
  br label %175

99:                                               ; preds = %91
  br label %100

100:                                              ; preds = %99, %52
  %101 = load i32, ptr %9, align 4, !tbaa !10
  %102 = load i32, ptr %7, align 4, !tbaa !10
  %103 = sub nsw i32 16, %102
  %104 = shl i32 %101, %103
  %105 = load ptr, ptr %4, align 8, !tbaa !9
  %106 = getelementptr inbounds nuw %struct.stbi__huffman, ptr %105, i32 0, i32 4
  %107 = load i32, ptr %7, align 4, !tbaa !10
  %108 = sext i32 %107 to i64
  %109 = getelementptr inbounds [18 x i32], ptr %106, i64 0, i64 %108
  store i32 %104, ptr %109, align 4, !tbaa !10
  %110 = load i32, ptr %9, align 4, !tbaa !10
  %111 = shl i32 %110, 1
  store i32 %111, ptr %9, align 4, !tbaa !10
  br label %112

112:                                              ; preds = %100
  %113 = load i32, ptr %7, align 4, !tbaa !10
  %114 = add nsw i32 %113, 1
  store i32 %114, ptr %7, align 4, !tbaa !10
  br label %49, !llvm.loop !315

115:                                              ; preds = %49
  %116 = load ptr, ptr %4, align 8, !tbaa !9
  %117 = getelementptr inbounds nuw %struct.stbi__huffman, ptr %116, i32 0, i32 4
  %118 = load i32, ptr %7, align 4, !tbaa !10
  %119 = sext i32 %118 to i64
  %120 = getelementptr inbounds [18 x i32], ptr %117, i64 0, i64 %119
  store i32 -1, ptr %120, align 4, !tbaa !10
  %121 = load ptr, ptr %4, align 8, !tbaa !9
  %122 = getelementptr inbounds nuw %struct.stbi__huffman, ptr %121, i32 0, i32 0
  %123 = getelementptr inbounds [512 x i8], ptr %122, i64 0, i64 0
  call void @llvm.memset.p0.i64(ptr align 4 %123, i8 -1, i64 512, i1 false)
  store i32 0, ptr %6, align 4, !tbaa !10
  br label %124

124:                                              ; preds = %171, %115
  %125 = load i32, ptr %6, align 4, !tbaa !10
  %126 = load i32, ptr %8, align 4, !tbaa !10
  %127 = icmp slt i32 %125, %126
  br i1 %127, label %128, label %174

128:                                              ; preds = %124
  call void @llvm.lifetime.start.p0(i64 4, ptr %11) #22
  %129 = load ptr, ptr %4, align 8, !tbaa !9
  %130 = getelementptr inbounds nuw %struct.stbi__huffman, ptr %129, i32 0, i32 3
  %131 = load i32, ptr %6, align 4, !tbaa !10
  %132 = sext i32 %131 to i64
  %133 = getelementptr inbounds [257 x i8], ptr %130, i64 0, i64 %132
  %134 = load i8, ptr %133, align 1, !tbaa !57
  %135 = zext i8 %134 to i32
  store i32 %135, ptr %11, align 4, !tbaa !10
  %136 = load i32, ptr %11, align 4, !tbaa !10
  %137 = icmp sle i32 %136, 9
  br i1 %137, label %138, label %170

138:                                              ; preds = %128
  call void @llvm.lifetime.start.p0(i64 4, ptr %12) #22
  %139 = load ptr, ptr %4, align 8, !tbaa !9
  %140 = getelementptr inbounds nuw %struct.stbi__huffman, ptr %139, i32 0, i32 1
  %141 = load i32, ptr %6, align 4, !tbaa !10
  %142 = sext i32 %141 to i64
  %143 = getelementptr inbounds [256 x i16], ptr %140, i64 0, i64 %142
  %144 = load i16, ptr %143, align 2, !tbaa !55
  %145 = zext i16 %144 to i32
  %146 = load i32, ptr %11, align 4, !tbaa !10
  %147 = sub nsw i32 9, %146
  %148 = shl i32 %145, %147
  store i32 %148, ptr %12, align 4, !tbaa !10
  call void @llvm.lifetime.start.p0(i64 4, ptr %13) #22
  %149 = load i32, ptr %11, align 4, !tbaa !10
  %150 = sub nsw i32 9, %149
  %151 = shl i32 1, %150
  store i32 %151, ptr %13, align 4, !tbaa !10
  store i32 0, ptr %7, align 4, !tbaa !10
  br label %152

152:                                              ; preds = %166, %138
  %153 = load i32, ptr %7, align 4, !tbaa !10
  %154 = load i32, ptr %13, align 4, !tbaa !10
  %155 = icmp slt i32 %153, %154
  br i1 %155, label %156, label %169

156:                                              ; preds = %152
  %157 = load i32, ptr %6, align 4, !tbaa !10
  %158 = trunc i32 %157 to i8
  %159 = load ptr, ptr %4, align 8, !tbaa !9
  %160 = getelementptr inbounds nuw %struct.stbi__huffman, ptr %159, i32 0, i32 0
  %161 = load i32, ptr %12, align 4, !tbaa !10
  %162 = load i32, ptr %7, align 4, !tbaa !10
  %163 = add nsw i32 %161, %162
  %164 = sext i32 %163 to i64
  %165 = getelementptr inbounds [512 x i8], ptr %160, i64 0, i64 %164
  store i8 %158, ptr %165, align 1, !tbaa !57
  br label %166

166:                                              ; preds = %156
  %167 = load i32, ptr %7, align 4, !tbaa !10
  %168 = add nsw i32 %167, 1
  store i32 %168, ptr %7, align 4, !tbaa !10
  br label %152, !llvm.loop !316

169:                                              ; preds = %152
  call void @llvm.lifetime.end.p0(i64 4, ptr %13) #22
  call void @llvm.lifetime.end.p0(i64 4, ptr %12) #22
  br label %170

170:                                              ; preds = %169, %128
  call void @llvm.lifetime.end.p0(i64 4, ptr %11) #22
  br label %171

171:                                              ; preds = %170
  %172 = load i32, ptr %6, align 4, !tbaa !10
  %173 = add nsw i32 %172, 1
  store i32 %173, ptr %6, align 4, !tbaa !10
  br label %124, !llvm.loop !317

174:                                              ; preds = %124
  store i32 1, ptr %3, align 4
  store i32 1, ptr %10, align 4
  br label %175

175:                                              ; preds = %174, %97
  call void @llvm.lifetime.end.p0(i64 4, ptr %9) #22
  call void @llvm.lifetime.end.p0(i64 4, ptr %8) #22
  call void @llvm.lifetime.end.p0(i64 4, ptr %7) #22
  call void @llvm.lifetime.end.p0(i64 4, ptr %6) #22
  %176 = load i32, ptr %3, align 4
  ret i32 %176
}