; Function Attrs: mustprogress nofree norecurse nosync nounwind memory(write, argmem: readwrite, inaccessiblemem: none) uwtable
define internal fastcc noundef range(i32 0, 2) i32 @_ZL19stbi__build_huffmanP13stbi__huffmanPi(ptr noundef nonnull captures(none) %0, ptr noundef nonnull readonly captures(none) %1) unnamed_addr #30 {
  %3 = getelementptr inbounds nuw i8, ptr %0, i64 1280
  br label %.preheader64

.preheader64:                                     ; preds = %2, %._crit_edge
  %indvars.iv88 = phi i64 [ 0, %2 ], [ %indvars.iv.next89, %._crit_edge ]
  %.05969 = phi i32 [ 0, %2 ], [ %.160.lcssa, %._crit_edge ]
  %4 = getelementptr inbounds nuw i32, ptr %1, i64 %indvars.iv88
  %5 = load i32, ptr %4, align 4, !tbaa !9
  %6 = icmp sgt i32 %5, 0
  br i1 %6, label %.lr.ph, label %._crit_edge

.lr.ph:                                           ; preds = %.preheader64
  %7 = trunc i64 %indvars.iv88 to i8
  %8 = add nuw nsw i8 %7, 1
  %9 = sext i32 %.05969 to i64
  br label %10

10:                                               ; preds = %.lr.ph, %10
  %indvars.iv = phi i64 [ %9, %.lr.ph ], [ %indvars.iv.next, %10 ]
  %.05468 = phi i32 [ 0, %.lr.ph ], [ %12, %10 ]
  %indvars.iv.next = add nsw i64 %indvars.iv, 1
  %11 = getelementptr inbounds [257 x i8], ptr %3, i64 0, i64 %indvars.iv
  store i8 %8, ptr %11, align 1, !tbaa !22
  %12 = add nuw nsw i32 %.05468, 1
  %13 = load i32, ptr %4, align 4, !tbaa !9
  %14 = icmp slt i32 %12, %13
  br i1 %14, label %10, label %._crit_edge.loopexit, !llvm.loop !342

._crit_edge.loopexit:                             ; preds = %10
  %15 = trunc nsw i64 %indvars.iv.next to i32
  br label %._crit_edge

._crit_edge:                                      ; preds = %._crit_edge.loopexit, %.preheader64
  %.160.lcssa = phi i32 [ %.05969, %.preheader64 ], [ %15, %._crit_edge.loopexit ]
  %indvars.iv.next89 = add nuw nsw i64 %indvars.iv88, 1
  %exitcond.not = icmp eq i64 %indvars.iv.next89, 16
  br i1 %exitcond.not, label %16, label %.preheader64, !llvm.loop !343

16:                                               ; preds = %._crit_edge
  %17 = sext i32 %.160.lcssa to i64
  %18 = getelementptr inbounds [257 x i8], ptr %3, i64 0, i64 %17
  store i8 0, ptr %18, align 1, !tbaa !22
  %19 = getelementptr inbounds nuw i8, ptr %0, i64 1612
  %20 = getelementptr inbounds nuw i8, ptr %0, i64 512
  %21 = getelementptr inbounds nuw i8, ptr %0, i64 1540
  br label %22

22:                                               ; preds = %16, %41
  %indvars.iv94 = phi i64 [ 1, %16 ], [ %indvars.iv.next95, %41 ]
  %.05678 = phi i32 [ 0, %16 ], [ %46, %41 ]
  %.26177 = phi i32 [ 0, %16 ], [ %.3, %41 ]
  %23 = sub i32 %.26177, %.05678
  %24 = getelementptr inbounds nuw [17 x i32], ptr %19, i64 0, i64 %indvars.iv94
  store i32 %23, ptr %24, align 4, !tbaa !9
  %25 = sext i32 %.26177 to i64
  %26 = getelementptr inbounds [257 x i8], ptr %3, i64 0, i64 %25
  %27 = load i8, ptr %26, align 1, !tbaa !22
  %28 = zext i8 %27 to i64
  %29 = icmp eq i64 %indvars.iv94, %28
  br i1 %29, label %.lr.ph73, label %41

.lr.ph73:                                         ; preds = %22, %.lr.ph73
  %indvars.iv91 = phi i64 [ %indvars.iv.next92, %.lr.ph73 ], [ %25, %22 ]
  %.25872 = phi i32 [ %30, %.lr.ph73 ], [ %.05678, %22 ]
  %30 = add i32 %.25872, 1
  %31 = trunc i32 %.25872 to i16
  %indvars.iv.next92 = add nsw i64 %indvars.iv91, 1
  %32 = getelementptr inbounds [256 x i16], ptr %20, i64 0, i64 %indvars.iv91
  store i16 %31, ptr %32, align 2, !tbaa !27
  %33 = getelementptr inbounds [257 x i8], ptr %3, i64 0, i64 %indvars.iv.next92
  %34 = load i8, ptr %33, align 1, !tbaa !22
  %35 = zext i8 %34 to i64
  %36 = icmp eq i64 %indvars.iv94, %35
  br i1 %36, label %.lr.ph73, label %._crit_edge74, !llvm.loop !344

._crit_edge74:                                    ; preds = %.lr.ph73
  %37 = trunc nsw i64 %indvars.iv.next92 to i32
  %38 = trunc nuw nsw i64 %indvars.iv94 to i32
  %.highbits = lshr i32 %.25872, %38
  %.not = icmp eq i32 %.highbits, 0
  br i1 %.not, label %41, label %39

39:                                               ; preds = %._crit_edge74
  %40 = tail call align 8 ptr @llvm.threadlocal.address.p0(ptr align 8 @_ZL22stbi__g_failure_reason)
  store ptr @.str.53, ptr %40, align 8, !tbaa !4
  br label %.loopexit63

41:                                               ; preds = %._crit_edge74, %22
  %.3 = phi i32 [ %37, %._crit_edge74 ], [ %.26177, %22 ]
  %.157 = phi i32 [ %30, %._crit_edge74 ], [ %.05678, %22 ]
  %42 = trunc i64 %indvars.iv94 to i32
  %43 = sub i32 16, %42
  %44 = shl i32 %.157, %43
  %45 = getelementptr inbounds nuw [18 x i32], ptr %21, i64 0, i64 %indvars.iv94
  store i32 %44, ptr %45, align 4, !tbaa !9
  %46 = shl i32 %.157, 1
  %indvars.iv.next95 = add nuw nsw i64 %indvars.iv94, 1
  %exitcond97.not = icmp eq i64 %indvars.iv.next95, 17
  br i1 %exitcond97.not, label %47, label %22, !llvm.loop !345

47:                                               ; preds = %41
  %48 = getelementptr inbounds nuw i8, ptr %0, i64 1608
  store i32 -1, ptr %48, align 4, !tbaa !9
  tail call void @llvm.memset.p0.i64(ptr noundef nonnull align 4 dereferenceable(512) %0, i8 -1, i64 512, i1 false)
  %49 = icmp sgt i32 %.3, 0
  br i1 %49, label %.lr.ph83, label %.loopexit63

.lr.ph83:                                         ; preds = %47
  %wide.trip.count = zext nneg i32 %.3 to i64
  br label %50

50:                                               ; preds = %.lr.ph83, %.loopexit
  %indvars.iv101 = phi i64 [ 0, %.lr.ph83 ], [ %indvars.iv.next102, %.loopexit ]
  %51 = getelementptr inbounds nuw [257 x i8], ptr %3, i64 0, i64 %indvars.iv101
  %52 = load i8, ptr %51, align 1, !tbaa !22
  %53 = icmp ult i8 %52, 10
  br i1 %53, label %54, label %.loopexit

54:                                               ; preds = %50
  %55 = getelementptr inbounds nuw [256 x i16], ptr %20, i64 0, i64 %indvars.iv101
  %56 = load i16, ptr %55, align 2, !tbaa !27
  %57 = zext i16 %56 to i32
  %narrow = sub nuw nsw i8 9, %52
  %58 = zext nneg i8 %narrow to i32
  %59 = shl nuw nsw i32 %57, %58
  %60 = trunc i64 %indvars.iv101 to i8
  %61 = zext nneg i32 %59 to i64
  br label %62

62:                                               ; preds = %54, %62
  %indvars.iv98 = phi i64 [ 0, %54 ], [ %indvars.iv.next99, %62 ]
  %63 = add nuw nsw i64 %indvars.iv98, %61
  %64 = getelementptr inbounds nuw [512 x i8], ptr %0, i64 0, i64 %63
  store i8 %60, ptr %64, align 1, !tbaa !22
  %indvars.iv.next99 = add nuw nsw i64 %indvars.iv98, 1
  %65 = trunc nuw nsw i64 %indvars.iv.next99 to i32
  %.2.highbits = lshr i32 %65, %58
  %66 = icmp eq i32 %.2.highbits, 0
  br i1 %66, label %62, label %.loopexit, !llvm.loop !346

.loopexit:                                        ; preds = %62, %50
  %indvars.iv.next102 = add nuw nsw i64 %indvars.iv101, 1
  %exitcond105.not = icmp eq i64 %indvars.iv.next102, %wide.trip.count
  br i1 %exitcond105.not, label %.loopexit63, label %50, !llvm.loop !347

.loopexit63:                                      ; preds = %.loopexit, %47, %39
  %.0 = phi i32 [ 0, %39 ], [ 1, %47 ], [ 1, %.loopexit ]
  ret i32 %.0
}